; Function Attrs: mustprogress uwtable
define internal noundef zeroext i1 @"_ZNSt17_Function_handlerIFbPN8facebook5velox6memory10MemoryPoolEEZNKS2_14MemoryPoolImpl15treeMemoryUsageB5cxx11EvE3$_0E9_M_invokeERKSt9_Any_dataOS4_"(ptr nocapture noundef nonnull readonly align 8 dereferenceable(16) %__functor, ptr nocapture noundef nonnull readonly align 8 dereferenceable(8) %__args) #0 align 2 {
entry:
  %__functor.val = load ptr, ptr %__functor, align 8
  %__args.val = load ptr, ptr %__args, align 8
  %0 = load i64, ptr %__functor.val, align 8
  %1 = getelementptr inbounds i8, ptr %__functor.val, i64 8
  %2 = load ptr, ptr %1, align 8
  %3 = getelementptr inbounds i8, ptr %__functor.val, i64 16
  %4 = load ptr, ptr %3, align 8
  tail call fastcc void @_ZN8facebook5velox6memory12_GLOBAL__N_122treeMemoryUsageVisitorEPNS1_10MemoryPoolEmRSt14priority_queueINS2_11MemoryUsageESt6vectorIS6_SaIS6_EENS2_15MemoryUsageCompEERNSt7__cxx1118basic_stringstreamIcSt11char_traitsIcESaIcEEE(ptr noundef %__args.val, i64 noundef %0, ptr noundef nonnull align 8 dereferenceable(25) %2, ptr noundef nonnull align 8 dereferenceable(128) %4)
  ret i1 true
}